target datalayout = "e-m:e-p270:32:32-p271:32:32-p272:64:64-i64:64-i128:128-f80:128-n8:16:32:64-S128"
target triple = "x86_64-unknown-linux-gnu"

; Function Attrs: mustprogress nounwind uwtable
define hidden noundef zeroext i8 @_ZN4llvh19isLegalUTF8SequenceEPKhS1_(ptr noundef %source, ptr noundef %sourceEnd) #0 {
entry:
  %retval = alloca i8, align 1
  %source.addr = alloca ptr, align 8
  %sourceEnd.addr = alloca ptr, align 8
  %length = alloca i32, align 4
  store ptr %source, ptr %source.addr, align 8
  store ptr %sourceEnd, ptr %sourceEnd.addr, align 8
  %0 = load ptr, ptr %source.addr, align 8
  %1 = load i8, ptr %0, align 1
  %idxprom = zext i8 %1 to i64
  %arrayidx = getelementptr inbounds [256 x i8], ptr @_ZN4llvhL20trailingBytesForUTF8E, i64 0, i64 %idxprom
  %2 = load i8, ptr %arrayidx, align 1
  %conv = sext i8 %2 to i32
  %add = add nsw i32 %conv, 1
  store i32 %add, ptr %length, align 4
  %3 = load i32, ptr %length, align 4
  %conv1 = sext i32 %3 to i64
  %4 = load ptr, ptr %sourceEnd.addr, align 8
  %5 = load ptr, ptr %source.addr, align 8
  %sub.ptr.lhs.cast = ptrtoint ptr %4 to i64
  %sub.ptr.rhs.cast = ptrtoint ptr %5 to i64
  %sub.ptr.sub = sub i64 %sub.ptr.lhs.cast, %sub.ptr.rhs.cast
  %cmp = icmp sgt i64 %conv1, %sub.ptr.sub
  br i1 %cmp, label %if.then, label %if.end

if.then:                                          ; preds = %entry
  store i8 0, ptr %retval, align 1
  br label %return

if.end:                                           ; preds = %entry
  %6 = load ptr, ptr %source.addr, align 8
  %7 = load i32, ptr %length, align 4
  %call = call noundef zeroext i8 @_ZN4llvhL11isLegalUTF8EPKhi(ptr noundef %6, i32 noundef %7)
  store i8 %call, ptr %retval, align 1
  br label %return

return:                                           ; preds = %if.end, %if.then
  %8 = load i8, ptr %retval, align 1
  ret i8 %8
}