; Function Attrs: mustprogress nofree norecurse nosync nounwind willreturn memory(argmem: read) uwtable
define hidden noundef zeroext range(i8 0, 2) i8 @_ZN4llvh19isLegalUTF8SequenceEPKhS1_(ptr noundef %source, ptr noundef %sourceEnd) local_unnamed_addr #1 {
entry:
  %0 = load i8, ptr %source, align 1
  %idxprom = zext i8 %0 to i64
  %arrayidx = getelementptr inbounds nuw [256 x i8], ptr @_ZN4llvhL20trailingBytesForUTF8E, i64 0, i64 %idxprom
  %1 = load i8, ptr %arrayidx, align 1
  %conv = sext i8 %1 to i32
  %add = add nsw i32 %conv, 1
  %conv1 = sext i32 %add to i64
  %sub.ptr.lhs.cast = ptrtoint ptr %sourceEnd to i64
  %sub.ptr.rhs.cast = ptrtoint ptr %source to i64
  %sub.ptr.sub = sub i64 %sub.ptr.lhs.cast, %sub.ptr.rhs.cast
  %cmp = icmp slt i64 %sub.ptr.sub, %conv1
  br i1 %cmp, label %return, label %if.end

if.end:                                           ; preds = %entry
  %call = tail call fastcc noundef zeroext i8 @_ZN4llvhL11isLegalUTF8EPKhi(ptr noundef nonnull %source, i32 noundef %add)
  br label %return

return:                                           ; preds = %entry, %if.end
  %retval.0 = phi i8 [ %call, %if.end ], [ 0, %entry ]
  ret i8 %retval.0
}